target datalayout = "e-m:e-p270:32:32-p271:32:32-p272:64:64-i64:64-i128:128-f80:128-n8:16:32:64-S128"
target triple = "x86_64-pc-linux-gnu"

%struct.OutputConfiguration = type { %struct.MPEG4AudioConfig, [256 x [3 x i8]], i32, %struct.AVChannelLayout, i32, %struct.AACUSACConfig }
%struct.MPEG4AudioConfig = type { i32, i32, i32, i32, i32, i32, i32, i32, i32, i32, i32, i32 }
%struct.AVChannelLayout = type { i32, i32, %union.anon, ptr }
%union.anon = type { i64 }
%struct.AACUSACConfig = type { i8, i16, i16, [64 x %struct.AACUsacElemConfig], i32, %struct.anon.3 }
%struct.AACUsacElemConfig = type { i32, i8, i8, %struct.anon, %struct.anon.1, %struct.anon.2 }
%struct.anon = type { i32, i8, %struct.anon.0 }
%struct.anon.0 = type { i8, i8, i8, i8, i8, i8, i8, i8 }
%struct.anon.1 = type { i8, i8, i8, i8, i8, i8, i8, i8, i8 }
%struct.anon.2 = type { i32, i8, i32, i32, ptr }
%struct.anon.3 = type { i8, i8, [64 x %struct.AACUSACLoudnessInfo], i8, i8, [64 x %struct.AACUSACLoudnessInfo] }
%struct.AACUSACLoudnessInfo = type <{ i16, %struct.anon.4, %struct.anon.5, i8, [16 x %struct.anon.6], i8 }>
%struct.anon.4 = type { i16 }
%struct.anon.5 = type { i32 }
%struct.anon.6 = type { i8, i8, i8 }
%struct.SingleChannelElement = type { %struct.IndividualChannelStream, %struct.AACUsacElemData, %struct.TemporalNoiseShaping, [128 x i32], [128 x i32], %union.anon.12, [12 x i8], %union.anon.13, %union.anon.14, %union.anon.15, %union.anon.16, %union.anon.17, %union.anon.18, %union.anon.19 }
%struct.IndividualChannelStream = type { i8, [2 x i32], [2 x i8], i32, i32, [8 x i8], %struct.LongTermPrediction, ptr, i32, i32, i32, i32, i32, i32, [41 x i8], [8 x i8] }
%struct.LongTermPrediction = type { i8, i16, %union.anon.7, [40 x i8] }
%union.anon.7 = type { i32 }
%struct.AACUsacElemData = type { i8, i8, i8, [16 x i8], %struct.anon.8, %struct.anon.9, %struct.anon.10, %struct.AACArithState }
%struct.anon.8 = type { i16, i32 }
%struct.anon.9 = type { i32, i8 }
%struct.anon.10 = type { i8, [8 x [8 x i32]] }
%struct.AACArithState = type { [513 x i8], i32, [4 x i8], i16 }
%struct.TemporalNoiseShaping = type { i32, [8 x i32], [8 x [4 x i32]], [8 x [4 x i32]], [8 x [4 x i32]], %union.anon.11 }
%union.anon.11 = type { [8 x [4 x [20 x i32]]] }
%union.anon.12 = type { [128 x i32] }
%union.anon.13 = type { [1024 x i32] }
%union.anon.14 = type { [1024 x i32] }
%union.anon.15 = type { [1536 x i32] }
%union.anon.16 = type { [2048 x i32] }
%union.anon.17 = type { [3072 x i32] }
%union.anon.18 = type { ptr }
%union.anon.19 = type { ptr }
%struct.AACDecContext = type { ptr, ptr, %struct.AACDecDSP, %struct.AACDecProc, ptr, i32, %struct.DynamicRangeControl, [4 x [64 x ptr]], [4 x [64 x ptr]], i32, i32, [8 x i8], %union.anon.28, %union.anon.29, ptr, ptr, ptr, ptr, ptr, ptr, ptr, ptr, ptr, ptr, ptr, ptr, ptr, ptr, ptr, ptr, ptr, ptr, %union.anon.30, i32, [64 x ptr], i32, i32, i32, [2 x %struct.OutputConfiguration], i32, i32, i32, i32, i32, i32, [8 x i8] }
%struct.AACDecDSP = type { ptr, ptr, ptr, ptr, ptr, ptr, ptr, ptr, ptr, ptr, ptr, ptr, ptr, ptr, ptr }
%struct.AACDecProc = type { ptr, ptr, ptr, ptr, ptr, ptr }
%struct.DynamicRangeControl = type { i32, [17 x i32], [17 x i32], [64 x i32], i32, i32, [17 x i32], i32 }
%union.anon.28 = type { [1024 x i32] }
%union.anon.29 = type { [128 x i32] }
%union.anon.30 = type { ptr }

@ff_swb_offset_96 = external constant [13 x ptr], align 16
@ff_aac_num_swb_96 = external constant [0 x i8], align 1
@ff_swb_offset_128 = external constant [13 x ptr], align 16
@ff_aac_num_swb_128 = external constant [0 x i8], align 1
@ff_tns_max_bands_usac_128 = external constant [13 x i8], align 1
@ff_swb_offset_768 = external constant [13 x ptr], align 16
@ff_aac_num_swb_768 = external constant [0 x i8], align 1
@ff_swb_offset_1024 = external constant [13 x ptr], align 16
@ff_aac_num_swb_1024 = external constant [0 x i8], align 1
@ff_tns_max_bands_usac_1024 = external constant [13 x i8], align 1
@.str.13 = private unnamed_addr constant [63 x i8] c"Number of scalefactor bands in group (%d) exceeds limit (%d).\0A\00", align 1

; Function Attrs: nounwind uwtable
define internal i32 @setup_sce(ptr noundef %0, ptr noundef %1, ptr noundef %2) #0 {
  %4 = alloca i32, align 4
  %5 = alloca ptr, align 8
  %6 = alloca ptr, align 8
  %7 = alloca ptr, align 8
  %8 = alloca ptr, align 8
  %9 = alloca ptr, align 8
  %10 = alloca i32, align 4
  %11 = alloca i32, align 4
  %12 = alloca i32, align 4
  %13 = alloca i32, align 4
  store ptr %0, ptr %5, align 8, !tbaa !4
  store ptr %1, ptr %6, align 8, !tbaa !33
  store ptr %2, ptr %7, align 8, !tbaa !11
  call void @llvm.lifetime.start.p0(i64 8, ptr %8) #12
  %14 = load ptr, ptr %6, align 8, !tbaa !33
  %15 = getelementptr inbounds nuw %struct.SingleChannelElement, ptr %14, i32 0, i32 1
  store ptr %15, ptr %8, align 8, !tbaa !35
  call void @llvm.lifetime.start.p0(i64 8, ptr %9) #12
  %16 = load ptr, ptr %6, align 8, !tbaa !33
  %17 = getelementptr inbounds nuw %struct.SingleChannelElement, ptr %16, i32 0, i32 0
  store ptr %17, ptr %9, align 8, !tbaa !162
  call void @llvm.lifetime.start.p0(i64 4, ptr %10) #12
  %18 = load ptr, ptr %5, align 8, !tbaa !4
  %19 = getelementptr inbounds nuw %struct.AACDecContext, ptr %18, i32 0, i32 38
  %20 = getelementptr inbounds [2 x %struct.OutputConfiguration], ptr %19, i64 0, i64 1
  %21 = getelementptr inbounds nuw %struct.OutputConfiguration, ptr %20, i32 0, i32 0
  %22 = getelementptr inbounds nuw %struct.MPEG4AudioConfig, ptr %21, i32 0, i32 1
  %23 = load i32, ptr %22, align 4, !tbaa !191
  store i32 %23, ptr %10, align 4, !tbaa !13
  %24 = load ptr, ptr %9, align 8, !tbaa !162
  %25 = getelementptr inbounds nuw %struct.IndividualChannelStream, ptr %24, i32 0, i32 3
  %26 = load i32, ptr %25, align 8, !tbaa !186
  %27 = icmp sgt i32 %26, 1
  br i1 %27, label %28, label %32

28:                                               ; preds = %3
  %29 = load ptr, ptr %9, align 8, !tbaa !162
  %30 = getelementptr inbounds nuw %struct.IndividualChannelStream, ptr %29, i32 0, i32 3
  %31 = load i32, ptr %30, align 8, !tbaa !186
  br label %33

32:                                               ; preds = %3
  br label %33

33:                                               ; preds = %32, %28
  %34 = phi i32 [ %31, %28 ], [ 1, %32 ]
  %35 = load ptr, ptr %9, align 8, !tbaa !162
  %36 = getelementptr inbounds nuw %struct.IndividualChannelStream, ptr %35, i32 0, i32 4
  store i32 %34, ptr %36, align 4, !tbaa !189
  %37 = load ptr, ptr %9, align 8, !tbaa !162
  %38 = getelementptr inbounds nuw %struct.IndividualChannelStream, ptr %37, i32 0, i32 1
  %39 = getelementptr inbounds [2 x i32], ptr %38, i64 0, i64 0
  %40 = load i32, ptr %39, align 4, !tbaa !13
  %41 = icmp eq i32 %40, 2
  br i1 %41, label %42, label %136

42:                                               ; preds = %33
  %43 = load ptr, ptr %7, align 8, !tbaa !11
  %44 = getelementptr inbounds nuw %struct.AACUSACConfig, ptr %43, i32 0, i32 1
  %45 = load i16, ptr %44, align 2, !tbaa !62
  %46 = zext i16 %45 to i32
  %47 = icmp eq i32 %46, 768
  br i1 %47, label %48, label %62

48:                                               ; preds = %42
  %49 = load i32, ptr %10, align 4, !tbaa !13
  %50 = sext i32 %49 to i64
  %51 = getelementptr inbounds [13 x ptr], ptr @ff_swb_offset_96, i64 0, i64 %50
  %52 = load ptr, ptr %51, align 8, !tbaa !192
  %53 = load ptr, ptr %9, align 8, !tbaa !162
  %54 = getelementptr inbounds nuw %struct.IndividualChannelStream, ptr %53, i32 0, i32 7
  store ptr %52, ptr %54, align 8, !tbaa !169
  %55 = load i32, ptr %10, align 4, !tbaa !13
  %56 = sext i32 %55 to i64
  %57 = getelementptr inbounds [0 x i8], ptr @ff_aac_num_swb_96, i64 0, i64 %56
  %58 = load i8, ptr %57, align 1, !tbaa !58
  %59 = zext i8 %58 to i32
  %60 = load ptr, ptr %9, align 8, !tbaa !162
  %61 = getelementptr inbounds nuw %struct.IndividualChannelStream, ptr %60, i32 0, i32 8
  store i32 %59, ptr %61, align 8, !tbaa !193
  br label %76

62:                                               ; preds = %42
  %63 = load i32, ptr %10, align 4, !tbaa !13
  %64 = sext i32 %63 to i64
  %65 = getelementptr inbounds [13 x ptr], ptr @ff_swb_offset_128, i64 0, i64 %64
  %66 = load ptr, ptr %65, align 8, !tbaa !192
  %67 = load ptr, ptr %9, align 8, !tbaa !162
  %68 = getelementptr inbounds nuw %struct.IndividualChannelStream, ptr %67, i32 0, i32 7
  store ptr %66, ptr %68, align 8, !tbaa !169
  %69 = load i32, ptr %10, align 4, !tbaa !13
  %70 = sext i32 %69 to i64
  %71 = getelementptr inbounds [0 x i8], ptr @ff_aac_num_swb_128, i64 0, i64 %70
  %72 = load i8, ptr %71, align 1, !tbaa !58
  %73 = zext i8 %72 to i32
  %74 = load ptr, ptr %9, align 8, !tbaa !162
  %75 = getelementptr inbounds nuw %struct.IndividualChannelStream, ptr %74, i32 0, i32 8
  store i32 %73, ptr %75, align 8, !tbaa !193
  br label %76

76:                                               ; preds = %62, %48
  %77 = load i32, ptr %10, align 4, !tbaa !13
  %78 = sext i32 %77 to i64
  %79 = getelementptr inbounds [13 x i8], ptr @ff_tns_max_bands_usac_128, i64 0, i64 %78
  %80 = load i8, ptr %79, align 1, !tbaa !58
  %81 = zext i8 %80 to i32
  %82 = load ptr, ptr %9, align 8, !tbaa !162
  %83 = getelementptr inbounds nuw %struct.IndividualChannelStream, ptr %82, i32 0, i32 10
  store i32 %81, ptr %83, align 8, !tbaa !194
  %84 = load ptr, ptr %9, align 8, !tbaa !162
  %85 = getelementptr inbounds nuw %struct.IndividualChannelStream, ptr %84, i32 0, i32 3
  store i32 0, ptr %85, align 8, !tbaa !186
  call void @llvm.lifetime.start.p0(i64 4, ptr %11) #12
  store i32 0, ptr %11, align 4, !tbaa !13
  br label %86

86:                                               ; preds = %123, %76
  %87 = load i32, ptr %11, align 4, !tbaa !13
  %88 = icmp slt i32 %87, 7
  br i1 %88, label %90, label %89

89:                                               ; preds = %86
  call void @llvm.lifetime.end.p0(i64 4, ptr %11) #12
  br label %126

90:                                               ; preds = %86
  %91 = load ptr, ptr %9, align 8, !tbaa !162
  %92 = getelementptr inbounds nuw %struct.IndividualChannelStream, ptr %91, i32 0, i32 5
  %93 = load i32, ptr %11, align 4, !tbaa !13
  %94 = sext i32 %93 to i64
  %95 = getelementptr inbounds [8 x i8], ptr %92, i64 0, i64 %94
  store i8 1, ptr %95, align 1, !tbaa !58
  %96 = load ptr, ptr %8, align 8, !tbaa !35
  %97 = getelementptr inbounds nuw %struct.AACUsacElemData, ptr %96, i32 0, i32 1
  %98 = load i8, ptr %97, align 1, !tbaa !166
  %99 = zext i8 %98 to i32
  %100 = load i32, ptr %11, align 4, !tbaa !13
  %101 = sub nsw i32 6, %100
  %102 = shl i32 1, %101
  %103 = and i32 %99, %102
  %104 = icmp ne i32 %103, 0
  br i1 %104, label %105, label %117

105:                                              ; preds = %90
  %106 = load ptr, ptr %9, align 8, !tbaa !162
  %107 = getelementptr inbounds nuw %struct.IndividualChannelStream, ptr %106, i32 0, i32 5
  %108 = load ptr, ptr %9, align 8, !tbaa !162
  %109 = getelementptr inbounds nuw %struct.IndividualChannelStream, ptr %108, i32 0, i32 3
  %110 = load i32, ptr %109, align 8, !tbaa !186
  %111 = sext i32 %110 to i64
  %112 = getelementptr inbounds [8 x i8], ptr %107, i64 0, i64 %111
  %113 = load i8, ptr %112, align 1, !tbaa !58
  %114 = zext i8 %113 to i32
  %115 = add nsw i32 %114, 1
  %116 = trunc i32 %115 to i8
  store i8 %116, ptr %112, align 1, !tbaa !58
  br label %122

117:                                              ; preds = %90
  %118 = load ptr, ptr %9, align 8, !tbaa !162
  %119 = getelementptr inbounds nuw %struct.IndividualChannelStream, ptr %118, i32 0, i32 3
  %120 = load i32, ptr %119, align 8, !tbaa !186
  %121 = add nsw i32 %120, 1
  store i32 %121, ptr %119, align 8, !tbaa !186
  br label %122

122:                                              ; preds = %117, %105
  br label %123

123:                                              ; preds = %122
  %124 = load i32, ptr %11, align 4, !tbaa !13
  %125 = add nsw i32 %124, 1
  store i32 %125, ptr %11, align 4, !tbaa !13
  br label %86, !llvm.loop !195

126:                                              ; preds = %89
  %127 = load ptr, ptr %9, align 8, !tbaa !162
  %128 = getelementptr inbounds nuw %struct.IndividualChannelStream, ptr %127, i32 0, i32 5
  %129 = getelementptr inbounds [8 x i8], ptr %128, i64 0, i64 7
  store i8 1, ptr %129, align 1, !tbaa !58
  %130 = load ptr, ptr %9, align 8, !tbaa !162
  %131 = getelementptr inbounds nuw %struct.IndividualChannelStream, ptr %130, i32 0, i32 3
  %132 = load i32, ptr %131, align 8, !tbaa !186
  %133 = add nsw i32 %132, 1
  store i32 %133, ptr %131, align 8, !tbaa !186
  %134 = load ptr, ptr %9, align 8, !tbaa !162
  %135 = getelementptr inbounds nuw %struct.IndividualChannelStream, ptr %134, i32 0, i32 9
  store i32 8, ptr %135, align 4, !tbaa !168
  br label %185

136:                                              ; preds = %33
  %137 = load ptr, ptr %7, align 8, !tbaa !11
  %138 = getelementptr inbounds nuw %struct.AACUSACConfig, ptr %137, i32 0, i32 1
  %139 = load i16, ptr %138, align 2, !tbaa !62
  %140 = zext i16 %139 to i32
  %141 = icmp eq i32 %140, 768
  br i1 %141, label %142, label %156

142:                                              ; preds = %136
  %143 = load i32, ptr %10, align 4, !tbaa !13
  %144 = sext i32 %143 to i64
  %145 = getelementptr inbounds [13 x ptr], ptr @ff_swb_offset_768, i64 0, i64 %144
  %146 = load ptr, ptr %145, align 8, !tbaa !192
  %147 = load ptr, ptr %9, align 8, !tbaa !162
  %148 = getelementptr inbounds nuw %struct.IndividualChannelStream, ptr %147, i32 0, i32 7
  store ptr %146, ptr %148, align 8, !tbaa !169
  %149 = load i32, ptr %10, align 4, !tbaa !13
  %150 = sext i32 %149 to i64
  %151 = getelementptr inbounds [0 x i8], ptr @ff_aac_num_swb_768, i64 0, i64 %150
  %152 = load i8, ptr %151, align 1, !tbaa !58
  %153 = zext i8 %152 to i32
  %154 = load ptr, ptr %9, align 8, !tbaa !162
  %155 = getelementptr inbounds nuw %struct.IndividualChannelStream, ptr %154, i32 0, i32 8
  store i32 %153, ptr %155, align 8, !tbaa !193
  br label %170

156:                                              ; preds = %136
  %157 = load i32, ptr %10, align 4, !tbaa !13
  %158 = sext i32 %157 to i64
  %159 = getelementptr inbounds [13 x ptr], ptr @ff_swb_offset_1024, i64 0, i64 %158
  %160 = load ptr, ptr %159, align 8, !tbaa !192
  %161 = load ptr, ptr %9, align 8, !tbaa !162
  %162 = getelementptr inbounds nuw %struct.IndividualChannelStream, ptr %161, i32 0, i32 7
  store ptr %160, ptr %162, align 8, !tbaa !169
  %163 = load i32, ptr %10, align 4, !tbaa !13
  %164 = sext i32 %163 to i64
  %165 = getelementptr inbounds [0 x i8], ptr @ff_aac_num_swb_1024, i64 0, i64 %164
  %166 = load i8, ptr %165, align 1, !tbaa !58
  %167 = zext i8 %166 to i32
  %168 = load ptr, ptr %9, align 8, !tbaa !162
  %169 = getelementptr inbounds nuw %struct.IndividualChannelStream, ptr %168, i32 0, i32 8
  store i32 %167, ptr %169, align 8, !tbaa !193
  br label %170

170:                                              ; preds = %156, %142
  %171 = load i32, ptr %10, align 4, !tbaa !13
  %172 = sext i32 %171 to i64
  %173 = getelementptr inbounds [13 x i8], ptr @ff_tns_max_bands_usac_1024, i64 0, i64 %172
  %174 = load i8, ptr %173, align 1, !tbaa !58
  %175 = zext i8 %174 to i32
  %176 = load ptr, ptr %9, align 8, !tbaa !162
  %177 = getelementptr inbounds nuw %struct.IndividualChannelStream, ptr %176, i32 0, i32 10
  store i32 %175, ptr %177, align 8, !tbaa !194
  %178 = load ptr, ptr %9, align 8, !tbaa !162
  %179 = getelementptr inbounds nuw %struct.IndividualChannelStream, ptr %178, i32 0, i32 5
  %180 = getelementptr inbounds [8 x i8], ptr %179, i64 0, i64 0
  store i8 1, ptr %180, align 8, !tbaa !58
  %181 = load ptr, ptr %9, align 8, !tbaa !162
  %182 = getelementptr inbounds nuw %struct.IndividualChannelStream, ptr %181, i32 0, i32 3
  store i32 1, ptr %182, align 8, !tbaa !186
  %183 = load ptr, ptr %9, align 8, !tbaa !162
  %184 = getelementptr inbounds nuw %struct.IndividualChannelStream, ptr %183, i32 0, i32 9
  store i32 1, ptr %184, align 4, !tbaa !168
  br label %185

185:                                              ; preds = %170, %126
  %186 = load ptr, ptr %9, align 8, !tbaa !162
  %187 = getelementptr inbounds nuw %struct.IndividualChannelStream, ptr %186, i32 0, i32 0
  %188 = load i8, ptr %187, align 8, !tbaa !165
  %189 = zext i8 %188 to i32
  %190 = load ptr, ptr %9, align 8, !tbaa !162
  %191 = getelementptr inbounds nuw %struct.IndividualChannelStream, ptr %190, i32 0, i32 8
  %192 = load i32, ptr %191, align 8, !tbaa !193
  %193 = icmp sgt i32 %189, %192
  br i1 %193, label %194, label %207

194:                                              ; preds = %185
  %195 = load ptr, ptr %5, align 8, !tbaa !4
  %196 = getelementptr inbounds nuw %struct.AACDecContext, ptr %195, i32 0, i32 1
  %197 = load ptr, ptr %196, align 8, !tbaa !90
  %198 = load ptr, ptr %9, align 8, !tbaa !162
  %199 = getelementptr inbounds nuw %struct.IndividualChannelStream, ptr %198, i32 0, i32 0
  %200 = load i8, ptr %199, align 8, !tbaa !165
  %201 = zext i8 %200 to i32
  %202 = load ptr, ptr %9, align 8, !tbaa !162
  %203 = getelementptr inbounds nuw %struct.IndividualChannelStream, ptr %202, i32 0, i32 8
  %204 = load i32, ptr %203, align 8, !tbaa !193
  call void (ptr, i32, ptr, ...) @av_log(ptr noundef %197, i32 noundef 16, ptr noundef @.str.13, i32 noundef %201, i32 noundef %204)
  %205 = load ptr, ptr %9, align 8, !tbaa !162
  %206 = getelementptr inbounds nuw %struct.IndividualChannelStream, ptr %205, i32 0, i32 0
  store i8 0, ptr %206, align 8, !tbaa !165
  store i32 -22, ptr %4, align 4
  store i32 1, ptr %12, align 4
  br label %223

207:                                              ; preds = %185
  call void @llvm.lifetime.start.p0(i64 4, ptr %13) #12
  store i32 0, ptr %13, align 4, !tbaa !13
  br label %208

208:                                              ; preds = %219, %207
  %209 = load i32, ptr %13, align 4, !tbaa !13
  %210 = sext i32 %209 to i64
  %211 = icmp ult i64 %210, 128
  br i1 %211, label %213, label %212

212:                                              ; preds = %208
  store i32 5, ptr %12, align 4
  call void @llvm.lifetime.end.p0(i64 4, ptr %13) #12
  br label %222

213:                                              ; preds = %208
  %214 = load ptr, ptr %6, align 8, !tbaa !33
  %215 = getelementptr inbounds nuw %struct.SingleChannelElement, ptr %214, i32 0, i32 3
  %216 = load i32, ptr %13, align 4, !tbaa !13
  %217 = sext i32 %216 to i64
  %218 = getelementptr inbounds [128 x i32], ptr %215, i64 0, i64 %217
  store i32 11, ptr %218, align 4, !tbaa !13
  br label %219

219:                                              ; preds = %213
  %220 = load i32, ptr %13, align 4, !tbaa !13
  %221 = add nsw i32 %220, 1
  store i32 %221, ptr %13, align 4, !tbaa !13
  br label %208, !llvm.loop !196

222:                                              ; preds = %212
  store i32 0, ptr %4, align 4
  store i32 1, ptr %12, align 4
  br label %223

223:                                              ; preds = %222, %194
  call void @llvm.lifetime.end.p0(i64 4, ptr %10) #12
  call void @llvm.lifetime.end.p0(i64 8, ptr %9) #12
  call void @llvm.lifetime.end.p0(i64 8, ptr %8) #12
  %224 = load i32, ptr %4, align 4
  ret i32 %224
}