; Function Attrs: nounwind uwtable
define internal fastcc range(i32 -22, 1) i32 @setup_sce(ptr noundef readonly captures(none) %0, ptr noundef captures(none) initializes((20, 24), (80, 92), (96, 100)) %1, ptr noundef readonly captures(none) %2) unnamed_addr #0 {
  %4 = getelementptr inbounds nuw i8, ptr %0, i64 22476
  %5 = load i32, ptr %4, align 4, !tbaa !208
  %6 = getelementptr inbounds nuw i8, ptr %1, i64 16
  %7 = load i32, ptr %6, align 8, !tbaa !151
  %spec.select = tail call i32 @llvm.smax.i32(i32 %7, i32 1)
  %8 = getelementptr inbounds nuw i8, ptr %1, i64 20
  store i32 %spec.select, ptr %8, align 4, !tbaa !154
  %9 = getelementptr inbounds nuw i8, ptr %1, i64 4
  %10 = load i32, ptr %9, align 4, !tbaa !39
  %11 = icmp eq i32 %10, 2
  %12 = getelementptr inbounds nuw i8, ptr %2, i64 2
  %13 = load i16, ptr %12, align 2, !tbaa !43
  %14 = icmp eq i16 %13, 768
  %15 = sext i32 %5 to i64
  %16 = getelementptr inbounds nuw i8, ptr %1, i64 80
  %17 = getelementptr inbounds nuw i8, ptr %1, i64 88
  %18 = getelementptr inbounds nuw i8, ptr %1, i64 96
  br i1 %11, label %19, label %50

19:                                               ; preds = %3
  %ff_swb_offset_96.ff_swb_offset_128 = select i1 %14, ptr @ff_swb_offset_96, ptr @ff_swb_offset_128
  %ff_aac_num_swb_96.ff_aac_num_swb_128 = select i1 %14, ptr @ff_aac_num_swb_96, ptr @ff_aac_num_swb_128
  %20 = getelementptr inbounds [13 x ptr], ptr %ff_swb_offset_96.ff_swb_offset_128, i64 0, i64 %15
  %21 = load ptr, ptr %20, align 8, !tbaa !209
  store ptr %21, ptr %16, align 8, !tbaa !160
  %22 = getelementptr inbounds [0 x i8], ptr %ff_aac_num_swb_96.ff_aac_num_swb_128, i64 0, i64 %15
  %.sink.in = load i8, ptr %22, align 1, !tbaa !38
  %.sink = zext i8 %.sink.in to i32
  store i32 %.sink, ptr %17, align 8, !tbaa !210
  %23 = getelementptr inbounds [13 x i8], ptr @ff_tns_max_bands_usac_128, i64 0, i64 %15
  %24 = load i8, ptr %23, align 1, !tbaa !38
  %25 = zext i8 %24 to i32
  store i32 %25, ptr %18, align 8, !tbaa !211
  store i32 0, ptr %6, align 8, !tbaa !151
  %26 = getelementptr inbounds nuw i8, ptr %1, i64 24
  %27 = getelementptr inbounds nuw i8, ptr %1, i64 169
  br label %33

28:                                               ; preds = %49
  %29 = getelementptr inbounds nuw i8, ptr %1, i64 31
  store i8 1, ptr %29, align 1, !tbaa !38
  %30 = load i32, ptr %6, align 8, !tbaa !151
  %31 = add nsw i32 %30, 1
  store i32 %31, ptr %6, align 8, !tbaa !151
  %32 = getelementptr inbounds nuw i8, ptr %1, i64 92
  store i32 8, ptr %32, align 4, !tbaa !159
  %.pre = load i32, ptr %17, align 8, !tbaa !210
  br label %59

33:                                               ; preds = %19, %49
  %indvars.iv = phi i64 [ 0, %19 ], [ %indvars.iv.next, %49 ]
  %34 = getelementptr inbounds nuw [8 x i8], ptr %26, i64 0, i64 %indvars.iv
  store i8 1, ptr %34, align 1, !tbaa !38
  %35 = load i8, ptr %27, align 1, !tbaa !148
  %36 = zext i8 %35 to i32
  %37 = trunc i64 %indvars.iv to i32
  %38 = sub i32 6, %37
  %39 = shl nuw nsw i32 1, %38
  %40 = and i32 %39, %36
  %.not = icmp eq i32 %40, 0
  %41 = load i32, ptr %6, align 8, !tbaa !151
  br i1 %.not, label %47, label %42

42:                                               ; preds = %33
  %43 = sext i32 %41 to i64
  %44 = getelementptr inbounds [8 x i8], ptr %26, i64 0, i64 %43
  %45 = load i8, ptr %44, align 1, !tbaa !38
  %46 = add i8 %45, 1
  store i8 %46, ptr %44, align 1, !tbaa !38
  br label %49

47:                                               ; preds = %33
  %48 = add nsw i32 %41, 1
  store i32 %48, ptr %6, align 8, !tbaa !151
  br label %49

49:                                               ; preds = %42, %47
  %indvars.iv.next = add nuw nsw i64 %indvars.iv, 1
  %exitcond.not = icmp eq i64 %indvars.iv.next, 7
  br i1 %exitcond.not, label %28, label %33, !llvm.loop !212

50:                                               ; preds = %3
  %ff_swb_offset_768.ff_swb_offset_1024 = select i1 %14, ptr @ff_swb_offset_768, ptr @ff_swb_offset_1024
  %ff_aac_num_swb_768.ff_aac_num_swb_1024 = select i1 %14, ptr @ff_aac_num_swb_768, ptr @ff_aac_num_swb_1024
  %51 = getelementptr inbounds [13 x ptr], ptr %ff_swb_offset_768.ff_swb_offset_1024, i64 0, i64 %15
  %52 = load ptr, ptr %51, align 8, !tbaa !209
  store ptr %52, ptr %16, align 8, !tbaa !160
  %53 = getelementptr inbounds [0 x i8], ptr %ff_aac_num_swb_768.ff_aac_num_swb_1024, i64 0, i64 %15
  %.sink68.in = load i8, ptr %53, align 1, !tbaa !38
  %.sink68 = zext i8 %.sink68.in to i32
  store i32 %.sink68, ptr %17, align 8, !tbaa !210
  %54 = getelementptr inbounds [13 x i8], ptr @ff_tns_max_bands_usac_1024, i64 0, i64 %15
  %55 = load i8, ptr %54, align 1, !tbaa !38
  %56 = zext i8 %55 to i32
  store i32 %56, ptr %18, align 8, !tbaa !211
  %57 = getelementptr inbounds nuw i8, ptr %1, i64 24
  store i8 1, ptr %57, align 8, !tbaa !38
  store i32 1, ptr %6, align 8, !tbaa !151
  %58 = getelementptr inbounds nuw i8, ptr %1, i64 92
  store i32 1, ptr %58, align 4, !tbaa !159
  br label %59

59:                                               ; preds = %50, %28
  %60 = phi i32 [ %.sink68, %50 ], [ %.pre, %28 ]
  %61 = load i8, ptr %1, align 8, !tbaa !147
  %62 = zext i8 %61 to i32
  %63 = icmp slt i32 %60, %62
  br i1 %63, label %65, label %.preheader

.preheader:                                       ; preds = %59
  %64 = getelementptr inbounds nuw i8, ptr %1, i64 3972
  br label %68

65:                                               ; preds = %59
  %66 = getelementptr inbounds nuw i8, ptr %0, i64 8
  %67 = load ptr, ptr %66, align 8, !tbaa !69
  tail call void (ptr, i32, ptr, ...) @av_log(ptr noundef %67, i32 noundef 16, ptr noundef nonnull @.str.13, i32 noundef %62, i32 noundef %60) #13
  store i8 0, ptr %1, align 8, !tbaa !147
  br label %.loopexit

68:                                               ; preds = %.preheader, %68
  %indvars.iv64 = phi i64 [ 0, %.preheader ], [ %indvars.iv.next65, %68 ]
  %69 = getelementptr inbounds nuw [128 x i32], ptr %64, i64 0, i64 %indvars.iv64
  store i32 11, ptr %69, align 4, !tbaa !39
  %indvars.iv.next65 = add nuw nsw i64 %indvars.iv64, 1
  %exitcond67.not = icmp eq i64 %indvars.iv.next65, 128
  br i1 %exitcond67.not, label %.loopexit, label %68, !llvm.loop !213

.loopexit:                                        ; preds = %68, %65
  %.056 = phi i32 [ -22, %65 ], [ 0, %68 ]
  ret i32 %.056
}